; Function Attrs: nofree norecurse nosync nounwind memory(argmem: readwrite) uwtable
define range(i32 -98, 1) i32 @sp_cond_swap_ct(ptr noundef captures(none) %0, ptr noundef captures(none) %1, i32 noundef %2, i32 noundef %3) local_unnamed_addr #8 {
  %5 = sext i32 %2 to i64
  %6 = icmp ult i32 %2, 2
  %7 = shl nsw i64 %5, 3
  %8 = add nsw i64 %7, 8
  %9 = select i1 %6, i64 16, i64 %8
  %10 = alloca i8, i64 %9, align 16
  %11 = icmp slt i32 %2, 130
  br i1 %11, label %12, label %sp_cond_swap_ct_ex.exit

12:                                               ; preds = %4
  %13 = sext i32 %3 to i64
  %14 = sub nsw i64 0, %13
  %15 = load i16, ptr %0, align 8, !tbaa !12
  %16 = load i16, ptr %1, align 8, !tbaa !12
  %17 = xor i16 %16, %15
  %18 = trunc i64 %14 to i16
  %19 = and i16 %17, %18
  %.not.i = icmp eq i32 %2, 0
  br i1 %.not.i, label %._crit_edge.thread.i, label %.lr.ph.i

._crit_edge.thread.i:                             ; preds = %12
  %20 = xor i16 %19, %15
  store i16 %20, ptr %0, align 8, !tbaa !12
  %21 = load i16, ptr %1, align 8, !tbaa !12
  %22 = xor i16 %21, %19
  store i16 %22, ptr %1, align 8, !tbaa !12
  br label %sp_cond_swap_ct_ex.exit

.lr.ph.i:                                         ; preds = %12
  %23 = getelementptr inbounds nuw i8, ptr %0, i64 8
  %24 = getelementptr inbounds nuw i8, ptr %1, i64 8
  %25 = getelementptr inbounds nuw i8, ptr %10, i64 8
  %wide.trip.count.i = zext i32 %2 to i64
  br label %26

26:                                               ; preds = %26, %.lr.ph.i
  %indvars.iv.i = phi i64 [ 0, %.lr.ph.i ], [ %indvars.iv.next.i, %26 ]
  %27 = getelementptr inbounds nuw [129 x i64], ptr %23, i64 0, i64 %indvars.iv.i
  %28 = load i64, ptr %27, align 8, !tbaa !8
  %29 = getelementptr inbounds nuw [129 x i64], ptr %24, i64 0, i64 %indvars.iv.i
  %30 = load i64, ptr %29, align 8, !tbaa !8
  %31 = xor i64 %30, %28
  %32 = and i64 %31, %14
  %33 = getelementptr inbounds nuw [129 x i64], ptr %25, i64 0, i64 %indvars.iv.i
  store i64 %32, ptr %33, align 8, !tbaa !8
  %indvars.iv.next.i = add nuw nsw i64 %indvars.iv.i, 1
  %exitcond.not.i = icmp eq i64 %indvars.iv.next.i, %wide.trip.count.i
  br i1 %exitcond.not.i, label %._crit_edge.i, label %26, !llvm.loop !18

._crit_edge.i:                                    ; preds = %26
  %34 = xor i16 %19, %15
  store i16 %34, ptr %0, align 8, !tbaa !12
  br label %35

35:                                               ; preds = %35, %._crit_edge.i
  %indvars.iv45.i = phi i64 [ 0, %._crit_edge.i ], [ %indvars.iv.next46.i, %35 ]
  %36 = getelementptr inbounds nuw [129 x i64], ptr %25, i64 0, i64 %indvars.iv45.i
  %37 = load i64, ptr %36, align 8, !tbaa !8
  %38 = getelementptr inbounds nuw [129 x i64], ptr %23, i64 0, i64 %indvars.iv45.i
  %39 = load i64, ptr %38, align 8, !tbaa !8
  %40 = xor i64 %39, %37
  store i64 %40, ptr %38, align 8, !tbaa !8
  %indvars.iv.next46.i = add nuw nsw i64 %indvars.iv45.i, 1
  %exitcond49.not.i = icmp eq i64 %indvars.iv.next46.i, %wide.trip.count.i
  br i1 %exitcond49.not.i, label %._crit_edge37.i, label %35, !llvm.loop !19

._crit_edge37.i:                                  ; preds = %35
  %41 = load i16, ptr %1, align 8, !tbaa !12
  %42 = xor i16 %41, %19
  store i16 %42, ptr %1, align 8, !tbaa !12
  br label %43

43:                                               ; preds = %43, %._crit_edge37.i
  %indvars.iv50.i = phi i64 [ 0, %._crit_edge37.i ], [ %indvars.iv.next51.i, %43 ]
  %44 = getelementptr inbounds nuw [129 x i64], ptr %25, i64 0, i64 %indvars.iv50.i
  %45 = load i64, ptr %44, align 8, !tbaa !8
  %46 = getelementptr inbounds nuw [129 x i64], ptr %24, i64 0, i64 %indvars.iv50.i
  %47 = load i64, ptr %46, align 8, !tbaa !8
  %48 = xor i64 %47, %45
  store i64 %48, ptr %46, align 8, !tbaa !8
  %indvars.iv.next51.i = add nuw nsw i64 %indvars.iv50.i, 1
  %exitcond54.not.i = icmp eq i64 %indvars.iv.next51.i, %wide.trip.count.i
  br i1 %exitcond54.not.i, label %sp_cond_swap_ct_ex.exit, label %43, !llvm.loop !20

sp_cond_swap_ct_ex.exit:                          ; preds = %43, %._crit_edge.thread.i, %4
  %.0 = phi i32 [ -98, %4 ], [ 0, %._crit_edge.thread.i ], [ 0, %43 ]
  ret i32 %.0
}